; Function Attrs: mustprogress uwtable
define hidden void @_ZN19OpenColorIO_v2_5dev6OpDataC2ERKS0_(ptr noundef nonnull align 8 dereferenceable(168) initializes((0, 48)) %0, ptr noundef nonnull align 8 dereferenceable(168) %1) unnamed_addr #6 align 2 personality ptr @__gxx_personality_v0 {
  store ptr getelementptr inbounds nuw inrange(-16, 88) (i8, ptr @_ZTVN19OpenColorIO_v2_5dev6OpDataE, i64 16), ptr %0, align 8, !tbaa !3
  %3 = getelementptr inbounds nuw i8, ptr %0, i64 8
  tail call void @llvm.memset.p0.i64(ptr noundef nonnull align 8 dereferenceable(40) %3, i8 0, i64 40, i1 false)
  %4 = getelementptr inbounds nuw i8, ptr %0, i64 48
  tail call void @_ZN19OpenColorIO_v2_5dev18FormatMetadataImplC1Ev(ptr noundef nonnull align 8 dereferenceable(120) %4)
  %.not.i = icmp eq ptr %0, %1
  br i1 %.not.i, label %_ZN19OpenColorIO_v2_5dev6OpDataaSERKS0_.exit, label %5

5:                                                ; preds = %2
  %6 = getelementptr inbounds nuw i8, ptr %1, i64 48
  %7 = invoke noundef nonnull align 8 dereferenceable(120) ptr @_ZN19OpenColorIO_v2_5dev18FormatMetadataImplaSERKS0_(ptr noundef nonnull align 8 dereferenceable(120) %4, ptr noundef nonnull align 8 dereferenceable(120) %6)
          to label %_ZN19OpenColorIO_v2_5dev6OpDataaSERKS0_.exit unwind label %8

_ZN19OpenColorIO_v2_5dev6OpDataaSERKS0_.exit:     ; preds = %2, %5
  ret void

8:                                                ; preds = %5
  %9 = landingpad { ptr, i32 }
          cleanup
  tail call void @_ZN19OpenColorIO_v2_5dev18FormatMetadataImplD1Ev(ptr noundef nonnull align 8 dereferenceable(120) %4) #26
  resume { ptr, i32 } %9
}